(lp0
ccopy_reg
_reconstructor
p1
(cdeap.creator
Individual
p2
c__builtin__
list
p3
(lp4
S'reg:linear'
p5
aI7
aF0.6531880231644188
aI8
atp6
Rp7
(dp8
S'fitness'
p9
g1
(cdeap.creator
FitnessMin
p10
c__builtin__
object
p11
Ntp12
Rp13
(dp14
S'wvalues'
p15
(F-3.763375
tp16
sbsbag1
(g2
g3
(lp17
g5
aI7
aF0.2224574536091427
aI0
atp18
Rp19
(dp20
g9
g1
(g10
g11
Ntp21
Rp22
(dp23
g15
(F-3.708954
tp24
sbsbag1
(g2
g3
(lp25
g5
aI7
aF0.04992010214608045
aI3
atp26
Rp27
(dp28
g9
g1
(g10
g11
Ntp29
Rp30
(dp31
g15
(F-3.689973
tp32
sbsbag1
(g2
g3
(lp33
g5
aI9
aF0.9755148873640282
aI7
atp34
Rp35
(dp36
g9
g1
(g10
g11
Ntp37
Rp38
(dp39
g15
(F-3.848808
tp40
sbsbag1
(g2
g3
(lp41
g5
aI10
aF0.07413585484045215
aI8
atp42
Rp43
(dp44
g9
g1
(g10
g11
Ntp45
Rp46
(dp47
g15
(F-3.752669
tp48
sbsbag1
(g2
g3
(lp49
g5
aI10
aF0.20785881778843585
aI4
atp50
Rp51
(dp52
g9
g1
(g10
g11
Ntp53
Rp54
(dp55
g15
(F-3.772436
tp56
sbsbag1
(g2
g3
(lp57
S'count:poisson'
p58
aI10
aF0.03509612216811675
aI1
atp59
Rp60
(dp61
g9
g1
(g10
g11
Ntp62
Rp63
(dp64
g15
(F-3.718603
tp65
sbsbag1
(g2
g3
(lp66
g58
aI5
aF0.45455936380319817
aI6
atp67
Rp68
(dp69
g9
g1
(g10
g11
Ntp70
Rp71
(dp72
g15
(F-3.69462
tp73
sbsbag1
(g2
g3
(lp74
g5
aI1
aF0.8791645627361866
aI10
atp75
Rp76
(dp77
g9
g1
(g10
g11
Ntp78
Rp79
(dp80
g15
(F-3.690123
tp81
sbsbag1
(g2
g3
(lp82
g5
aI10
aF0.9561210542962247
aI0
atp83
Rp84
(dp85
g9
g1
(g10
g11
Ntp86
Rp87
(dp88
g15
(F-3.90205
tp89
sbsbag1
(g2
g3
(lp90
g58
aI4
aF0.5971598349861301
aI6
atp91
Rp92
(dp93
g9
g1
(g10
g11
Ntp94
Rp95
(dp96
g15
(F-3.676954
tp97
sbsbag1
(g2
g3
(lp98
g58
aI5
aF0.8277680956532321
aI10
atp99
Rp100
(dp101
g9
g1
(g10
g11
Ntp102
Rp103
(dp104
g15
(F-3.698507
tp105
sbsbag1
(g2
g3
(lp106
g58
aI4
aF0.27258795135268954
aI4
atp107
Rp108
(dp109
g9
g1
(g10
g11
Ntp110
Rp111
(dp112
g15
(F-3.675929
tp113
sbsbag1
(g2
g3
(lp114
g58
aI6
aF0.006095687821274343
aI10
atp115
Rp116
(dp117
g9
g1
(g10
g11
Ntp118
Rp119
(dp120
g15
(F-3.674166
tp121
sbsbag1
(g2
g3
(lp122
g58
aI10
aF0.7160308296515017
aI8
atp123
Rp124
(dp125
g9
g1
(g10
g11
Ntp126
Rp127
(dp128
g15
(F-3.783477
tp129
sbsbag1
(g2
g3
(lp130
g58
aI5
aF0.24450862553374597
aI3
atp131
Rp132
(dp133
g9
g1
(g10
g11
Ntp134
Rp135
(dp136
g15
(F-3.670843
tp137
sbsbag1
(g2
g3
(lp138
g5
aI9
aF0.15218774806679103
aI0
atp139
Rp140
(dp141
g9
g1
(g10
g11
Ntp142
Rp143
(dp144
g15
(F-3.748756
tp145
sbsbag1
(g2
g3
(lp146
g58
aI1
aF0.7488923042290747
aI9
atp147
Rp148
(dp149
g9
g1
(g10
g11
Ntp150
Rp151
(dp152
g15
(F-3.691784
tp153
sbsbag1
(g2
g3
(lp154
g58
aI6
aF0.4901744895190244
aI3
atp155
Rp156
(dp157
g9
g1
(g10
g11
Ntp158
Rp159
(dp160
g15
(F-3.691652
tp161
sbsbag1
(g2
g3
(lp162
g5
aI7
aF0.7633524683792163
aI9
atp163
Rp164
(dp165
g9
g1
(g10
g11
Ntp166
Rp167
(dp168
g15
(F-3.77113
tp169
sbsbag1
(g2
g3
(lp170
g58
aI10
aF0.649808457762598
aI5
atp171
Rp172
(dp173
g9
g1
(g10
g11
Ntp174
Rp175
(dp176
g15
(F-3.765633
tp177
sbsbag1
(g2
g3
(lp178
g5
aI2
aF0.8544606134736698
aI4
atp179
Rp180
(dp181
g9
g1
(g10
g11
Ntp182
Rp183
(dp184
g15
(F-3.689994
tp185
sbsbag1
(g2
g3
(lp186
g5
aI5
aF0.16599879878322354
aI1
atp187
Rp188
(dp189
g9
g1
(g10
g11
Ntp190
Rp191
(dp192
g15
(F-3.692964
tp193
sbsbag1
(g2
g3
(lp194
g5
aI1
aF0.3677142518648674
aI8
atp195
Rp196
(dp197
g9
g1
(g10
g11
Ntp198
Rp199
(dp200
g15
(F-3.687061
tp201
sbsbag1
(g2
g3
(lp202
g58
aI10
aF0.5980582622426152
aI2
atp203
Rp204
(dp205
g9
g1
(g10
g11
Ntp206
Rp207
(dp208
g15
(F-3.774861
tp209
sbsbag1
(g2
g3
(lp210
g58
aI1
aF0.23756956953848463
aI5
atp211
Rp212
(dp213
g9
g1
(g10
g11
Ntp214
Rp215
(dp216
g15
(F-3.689346
tp217
sbsbag1
(g2
g3
(lp218
g58
aI8
aF0.5374561494644938
aI9
atp219
Rp220
(dp221
g9
g1
(g10
g11
Ntp222
Rp223
(dp224
g15
(F-3.722426
tp225
sbsbag1
(g2
g3
(lp226
g58
aI7
aF0.020851443845399498
aI1
atp227
Rp228
(dp229
g9
g1
(g10
g11
Ntp230
Rp231
(dp232
g15
(F-3.67862
tp233
sbsbag1
(g2
g3
(lp234
g58
aI10
aF0.19555096099348446
aI2
atp235
Rp236
(dp237
g9
g1
(g10
g11
Ntp238
Rp239
(dp240
g15
(F-3.7163
tp241
sbsbag1
(g2
g3
(lp242
g58
aI5
aF0.5697386233144986
aI4
atp243
Rp244
(dp245
g9
g1
(g10
g11
Ntp246
Rp247
(dp248
g15
(F-3.69121
tp249
sbsbag1
(g2
g3
(lp250
g5
aI3
aF0.13469956909590497
aI2
atp251
Rp252
(dp253
g9
g1
(g10
g11
Ntp254
Rp255
(dp256
g15
(F-3.663827
tp257
sbsbag1
(g2
g3
(lp258
g58
aI2
aF0.8479383555629945
aI7
atp259
Rp260
(dp261
g9
g1
(g10
g11
Ntp262
Rp263
(dp264
g15
(F-3.680022
tp265
sbsbag1
(g2
g3
(lp266
g58
aI10
aF0.3107445613991734
aI9
atp267
Rp268
(dp269
g9
g1
(g10
g11
Ntp270
Rp271
(dp272
g15
(F-3.710507
tp273
sbsbag1
(g2
g3
(lp274
g58
aI4
aF0.7294579346614094
aI6
atp275
Rp276
(dp277
g9
g1
(g10
g11
Ntp278
Rp279
(dp280
g15
(F-3.686617
tp281
sbsbag1
(g2
g3
(lp282
g58
aI6
aF0.053029308466957636
aI5
atp283
Rp284
(dp285
g9
g1
(g10
g11
Ntp286
Rp287
(dp288
g15
(F-3.668753
tp289
sbsbag1
(g2
g3
(lp290
g5
aI2
aF0.47300995592655515
aI7
atp291
Rp292
(dp293
g9
g1
(g10
g11
Ntp294
Rp295
(dp296
g15
(F-3.669991
tp297
sbsbag1
(g2
g3
(lp298
g58
aI8
aF0.7633533528703265
aI0
atp299
Rp300
(dp301
g9
g1
(g10
g11
Ntp302
Rp303
(dp304
g15
(F-3.750962
tp305
sbsbag1
(g2
g3
(lp306
g58
aI2
aF0.7898316091715908
aI4
atp307
Rp308
(dp309
g9
g1
(g10
g11
Ntp310
Rp311
(dp312
g15
(F-3.678458
tp313
sbsbag1
(g2
g3
(lp314
g58
aI2
aF0.35232981039056577
aI2
atp315
Rp316
(dp317
g9
g1
(g10
g11
Ntp318
Rp319
(dp320
g15
(F-3.660563
tp321
sbsbag1
(g2
g3
(lp322
g58
aI8
aF0.8754232567313536
aI1
atp323
Rp324
(dp325
g9
g1
(g10
g11
Ntp326
Rp327
(dp328
g15
(F-3.754051
tp329
sbsbag1
(g2
g3
(lp330
g5
aI6
aF0.26808877087202565
aI0
atp331
Rp332
(dp333
g9
g1
(g10
g11
Ntp334
Rp335
(dp336
g15
(F-3.702444
tp337
sbsbag1
(g2
g3
(lp338
g5
aI2
aF0.9100898527450029
aI7
atp339
Rp340
(dp341
g9
g1
(g10
g11
Ntp342
Rp343
(dp344
g15
(F-3.702399
tp345
sbsbag1
(g2
g3
(lp346
g58
aI7
aF0.2647598214775495
aI5
atp347
Rp348
(dp349
g9
g1
(g10
g11
Ntp350
Rp351
(dp352
g15
(F-3.697617
tp353
sbsbag1
(g2
g3
(lp354
g58
aI6
aF0.2890826844400952
aI1
atp355
Rp356
(dp357
g9
g1
(g10
g11
Ntp358
Rp359
(dp360
g15
(F-3.67893
tp361
sbsbag1
(g2
g3
(lp362
g58
aI1
aF0.48664185015787076
aI4
atp363
Rp364
(dp365
g9
g1
(g10
g11
Ntp366
Rp367
(dp368
g15
(F-3.68768
tp369
sbsbag1
(g2
g3
(lp370
g5
aI8
aF0.6217163978901696
aI3
atp371
Rp372
(dp373
g9
g1
(g10
g11
Ntp374
Rp375
(dp376
g15
(F-3.781845
tp377
sbsbag1
(g2
g3
(lp378
g5
aI1
aF0.5553384959065895
aI8
atp379
Rp380
(dp381
g9
g1
(g10
g11
Ntp382
Rp383
(dp384
g15
(F-3.687366
tp385
sbsbag1
(g2
g3
(lp386
g5
aI3
aF0.454880105464343
aI4
atp387
Rp388
(dp389
g9
g1
(g10
g11
Ntp390
Rp391
(dp392
g15
(F-3.680449
tp393
sbsbag1
(g2
g3
(lp394
g58
aI9
aF0.7321906593871916
aI4
atp395
Rp396
(dp397
g9
g1
(g10
g11
Ntp398
Rp399
(dp400
g15
(F-3.760382
tp401
sbsbag1
(g2
g3
(lp402
g5
aI3
aF0.3881902194567768
aI7
atp403
Rp404
(dp405
g9
g1
(g10
g11
Ntp406
Rp407
(dp408
g15
(F-3.678384
tp409
sbsbag1
(g2
g3
(lp410
g58
aI6
aF0.7222699309147089
aI7
atp411
Rp412
(dp413
g9
g1
(g10
g11
Ntp414
Rp415
(dp416
g15
(F-3.707541
tp417
sbsbag1
(g2
g3
(lp418
g58
aI2
aF0.2014108737488014
aI7
atp419
Rp420
(dp421
g9
g1
(g10
g11
Ntp422
Rp423
(dp424
g15
(F-3.671234
tp425
sbsbag1
(g2
g3
(lp426
g5
aI5
aF0.9941158517762706
aI4
atp427
Rp428
(dp429
g9
g1
(g10
g11
Ntp430
Rp431
(dp432
g15
(F-3.764716
tp433
sbsbag1
(g2
g3
(lp434
g5
aI9
aF0.28985870759406085
aI9
atp435
Rp436
(dp437
g9
g1
(g10
g11
Ntp438
Rp439
(dp440
g15
(F-3.736801
tp441
sbsbag1
(g2
g3
(lp442
g58
aI8
aF0.3383740746237621
aI5
atp443
Rp444
(dp445
g9
g1
(g10
g11
Ntp446
Rp447
(dp448
g15
(F-3.706363
tp449
sbsbag1
(g2
g3
(lp450
g5
aI1
aF0.6043430159426022
aI8
atp451
Rp452
(dp453
g9
g1
(g10
g11
Ntp454
Rp455
(dp456
g15
(F-3.687974
tp457
sbsbag1
(g2
g3
(lp458
g5
aI4
aF0.2068319007109648
aI0
atp459
Rp460
(dp461
g9
g1
(g10
g11
Ntp462
Rp463
(dp464
g15
(F-3.674573
tp465
sbsbag1
(g2
g3
(lp466
g58
aI6
aF0.14888536436512
aI0
atp467
Rp468
(dp469
g9
g1
(g10
g11
Ntp470
Rp471
(dp472
g15
(F-3.675155
tp473
sbsbag1
(g2
g3
(lp474
g5
aI8
aF0.41023532574413635
aI4
atp475
Rp476
(dp477
g9
g1
(g10
g11
Ntp478
Rp479
(dp480
g15
(F-3.766185
tp481
sbsbag1
(g2
g3
(lp482
g58
aI2
aF0.8163144187266775
aI3
atp483
Rp484
(dp485
g9
g1
(g10
g11
Ntp486
Rp487
(dp488
g15
(F-3.675426
tp489
sbsbag1
(g2
g3
(lp490
g5
aI5
aF0.21504666750654822
aI3
atp491
Rp492
(dp493
g9
g1
(g10
g11
Ntp494
Rp495
(dp496
g15
(F-3.696279
tp497
sbsbag1
(g2
g3
(lp498
g5
aI3
aF0.2980534990986897
aI6
atp499
Rp500
(dp501
g9
g1
(g10
g11
Ntp502
Rp503
(dp504
g15
(F-3.676564
tp505
sbsbag1
(g2
g3
(lp506
g58
aI4
aF0.12570754300485676
aI10
atp507
Rp508
(dp509
g9
g1
(g10
g11
Ntp510
Rp511
(dp512
g15
(F-3.665663
tp513
sbsbag1
(g2
g3
(lp514
g5
aI4
aF0.8041876692503196
aI5
atp515
Rp516
(dp517
g9
g1
(g10
g11
Ntp518
Rp519
(dp520
g15
(F-3.726967
tp521
sbsbag1
(g2
g3
(lp522
g58
aI1
aF0.41330238071602443
aI1
atp523
Rp524
(dp525
g9
g1
(g10
g11
Ntp526
Rp527
(dp528
g15
(F-3.684031
tp529
sbsbag1
(g2
g3
(lp530
g58
aI10
aF0.5022641105679228
aI10
atp531
Rp532
(dp533
g9
g1
(g10
g11
Ntp534
Rp535
(dp536
g15
(F-3.727141
tp537
sbsbag1
(g2
g3
(lp538
g58
aI5
aF0.8281903407864784
aI6
atp539
Rp540
(dp541
g9
g1
(g10
g11
Ntp542
Rp543
(dp544
g15
(F-3.702825
tp545
sbsbag1
(g2
g3
(lp546
g58
aI7
aF0.5566305766537546
aI9
atp547
Rp548
(dp549
g9
g1
(g10
g11
Ntp550
Rp551
(dp552
g15
(F-3.695247
tp553
sbsbag1
(g2
g3
(lp554
g58
aI9
aF0.00954110544793818
aI5
atp555
Rp556
(dp557
g9
g1
(g10
g11
Ntp558
Rp559
(dp560
g15
(F-3.697923
tp561
sbsbag1
(g2
g3
(lp562
g58
aI5
aF0.22598724857779928
aI2
atp563
Rp564
(dp565
g9
g1
(g10
g11
Ntp566
Rp567
(dp568
g15
(F-3.667257
tp569
sbsbag1
(g2
g3
(lp570
g5
aI2
aF0.7458234134277643
aI4
atp571
Rp572
(dp573
g9
g1
(g10
g11
Ntp574
Rp575
(dp576
g15
(F-3.690722
tp577
sbsbag1
(g2
g3
(lp578
g5
aI9
aF0.7506307915718662
aI9
atp579
Rp580
(dp581
g9
g1
(g10
g11
Ntp582
Rp583
(dp584
g15
(F-3.830165
tp585
sbsbag1
(g2
g3
(lp586
g5
aI5
aF0.5969625233359872
aI7
atp587
Rp588
(dp589
g9
g1
(g10
g11
Ntp590
Rp591
(dp592
g15
(F-3.715019
tp593
sbsbag1
(g2
g3
(lp594
g58
aI8
aF0.7806013068934762
aI5
atp595
Rp596
(dp597
g9
g1
(g10
g11
Ntp598
Rp599
(dp600
g15
(F-3.763046
tp601
sbsbag1
(g2
g3
(lp602
g58
aI7
aF0.3707851450849772
aI6
atp603
Rp604
(dp605
g9
g1
(g10
g11
Ntp606
Rp607
(dp608
g15
(F-3.696092
tp609
sbsbag1
(g2
g3
(lp610
g58
aI3
aF0.7715656048176169
aI8
atp611
Rp612
(dp613
g9
g1
(g10
g11
Ntp614
Rp615
(dp616
g15
(F-3.688497
tp617
sbsbag1
(g2
g3
(lp618
g5
aI8
aF0.7960515650521623
aI5
atp619
Rp620
(dp621
g9
g1
(g10
g11
Ntp622
Rp623
(dp624
g15
(F-3.808904
tp625
sbsbag1
(g2
g3
(lp626
g5
aI5
aF0.9506236694281218
aI9
atp627
Rp628
(dp629
g9
g1
(g10
g11
Ntp630
Rp631
(dp632
g15
(F-3.753285
tp633
sbsbag1
(g2
g3
(lp634
g5
aI7
aF0.32167664384326866
aI10
atp635
Rp636
(dp637
g9
g1
(g10
g11
Ntp638
Rp639
(dp640
g15
(F-3.714469
tp641
sbsbag1
(g2
g3
(lp642
g58
aI10
aF0.994527424672187
aI1
atp643
Rp644
(dp645
g9
g1
(g10
g11
Ntp646
Rp647
(dp648
g15
(F-3.802525
tp649
sbsbag1
(g2
g3
(lp650
g5
aI2
aF0.9675826710579274
aI9
atp651
Rp652
(dp653
g9
g1
(g10
g11
Ntp654
Rp655
(dp656
g15
(F-3.70949
tp657
sbsbag1
(g2
g3
(lp658
g58
aI7
aF0.24812997612754206
aI9
atp659
Rp660
(dp661
g9
g1
(g10
g11
Ntp662
Rp663
(dp664
g15
(F-3.676688
tp665
sbsbag1
(g2
g3
(lp666
g58
aI2
aF0.5577599257539297
aI0
atp667
Rp668
(dp669
g9
g1
(g10
g11
Ntp670
Rp671
(dp672
g15
(F-3.664747
tp673
sbsbag1
(g2
g3
(lp674
g5
aI8
aF0.8217077256880083
aI1
atp675
Rp676
(dp677
g9
g1
(g10
g11
Ntp678
Rp679
(dp680
g15
(F-3.809739
tp681
sbsbag1
(g2
g3
(lp682
g58
aI3
aF0.45432758635698633
aI7
atp683
Rp684
(dp685
g9
g1
(g10
g11
Ntp686
Rp687
(dp688
g15
(F-3.668368
tp689
sbsbag1
(g2
g3
(lp690
g58
aI8
aF0.4759900951414622
aI9
atp691
Rp692
(dp693
g9
g1
(g10
g11
Ntp694
Rp695
(dp696
g15
(F-3.729738
tp697
sbsbag1
(g2
g3
(lp698
g58
aI10
aF0.3953714756326535
aI0
atp699
Rp700
(dp701
g9
g1
(g10
g11
Ntp702
Rp703
(dp704
g15
(F-3.735032
tp705
sbsbag1
(g2
g3
(lp706
g5
aI2
aF0.3208194106644984
aI3
atp707
Rp708
(dp709
g9
g1
(g10
g11
Ntp710
Rp711
(dp712
g15
(F-3.663939
tp713
sbsbag1
(g2
g3
(lp714
g58
aI9
aF0.09243185791660224
aI3
atp715
Rp716
(dp717
g9
g1
(g10
g11
Ntp718
Rp719
(dp720
g15
(F-3.70347
tp721
sbsbag1
(g2
g3
(lp722
g5
aI1
aF0.7019634646319424
aI3
atp723
Rp724
(dp725
g9
g1
(g10
g11
Ntp726
Rp727
(dp728
g15
(F-3.687507
tp729
sbsbag1
(g2
g3
(lp730
g58
aI7
aF0.9897162736859989
aI4
atp731
Rp732
(dp733
g9
g1
(g10
g11
Ntp734
Rp735
(dp736
g15
(F-3.748625
tp737
sbsbag1
(g2
g3
(lp738
g58
aI6
aF0.05656651065539042
aI3
atp739
Rp740
(dp741
g9
g1
(g10
g11
Ntp742
Rp743
(dp744
g15
(F-3.673722
tp745
sbsbag1
(g2
g3
(lp746
g58
aI9
aF0.7994869782412706
aI10
atp747
Rp748
(dp749
g9
g1
(g10
g11
Ntp750
Rp751
(dp752
g15
(F-3.780151
tp753
sbsbag1
(g2
g3
(lp754
g5
aI6
aF0.11036482855267404
aI8
atp755
Rp756
(dp757
g9
g1
(g10
g11
Ntp758
Rp759
(dp760
g15
(F-3.682878
tp761
sbsbag1
(g2
g3
(lp762
g5
aI9
aF0.20043641733782758
aI2
atp763
Rp764
(dp765
g9
g1
(g10
g11
Ntp766
Rp767
(dp768
g15
(F-3.739727
tp769
sbsbag1
(g2
g3
(lp770
g5
aI1
aF0.9725884976966142
aI3
atp771
Rp772
(dp773
g9
g1
(g10
g11
Ntp774
Rp775
(dp776
g15
(F-3.688164
tp777
sbsbag1
(g2
g3
(lp778
g5
aI5
aF0.7823441384845637
aI5
atp779
Rp780
(dp781
g9
g1
(g10
g11
Ntp782
Rp783
(dp784
g15
(F-3.731252
tp785
sbsbag1
(g2
g3
(lp786
g58
aI6
aF0.40290683469489064
aI3
atp787
Rp788
(dp789
g9
g1
(g10
g11
Ntp790
Rp791
(dp792
g15
(F-3.6807
tp793
sbsbag1
(g2
g3
(lp794
g58
aI3
aF0.9279589360464547
aI6
atp795
Rp796
(dp797
g9
g1
(g10
g11
Ntp798
Rp799
(dp800
g15
(F-3.676978
tp801
sbsbag1
(g2
g3
(lp802
g5
aI6
aF0.1043461219524876
aI5
atp803
Rp804
(dp805
g9
g1
(g10
g11
Ntp806
Rp807
(dp808
g15
(F-3.684028
tp809
sbsbag1
(g2
g3
(lp810
g5
aI8
aF0.5513706482767902
aI0
atp811
Rp812
(dp813
g9
g1
(g10
g11
Ntp814
Rp815
(dp816
g15
(F-3.779108
tp817
sbsbag1
(g2
g3
(lp818
g58
aI1
aF0.15347028686628716
aI1
atp819
Rp820
(dp821
g9
g1
(g10
g11
Ntp822
Rp823
(dp824
g15
(F-3.684738
tp825
sbsbag1
(g2
g3
(lp826
g5
aI9
aF0.9412272595680455
aI2
atp827
Rp828
(dp829
g9
g1
(g10
g11
Ntp830
Rp831
(dp832
g15
(F-3.844314
tp833
sbsbag1
(g2
g3
(lp834
g58
aI5
aF0.24585940247254334
aI7
atp835
Rp836
(dp837
g9
g1
(g10
g11
Ntp838
Rp839
(dp840
g15
(F-3.666127
tp841
sbsbag1
(g2
g3
(lp842
g5
aI2
aF0.8793968074878755
aI4
atp843
Rp844
(dp845
g9
g1
(g10
g11
Ntp846
Rp847
(dp848
g15
(F-3.693322
tp849
sbsbag1
(g2
g3
(lp850
g5
aI2
aF0.794098525206305
aI3
atp851
Rp852
(dp853
g9
g1
(g10
g11
Ntp854
Rp855
(dp856
g15
(F-3.692188
tp857
sbsbag1
(g2
g3
(lp858
g58
aI5
aF0.34747865584786397
aI7
atp859
Rp860
(dp861
g9
g1
(g10
g11
Ntp862
Rp863
(dp864
g15
(F-3.671528
tp865
sbsbag1
(g2
g3
(lp866
g5
aI4
aF0.496393526020909
aI5
atp867
Rp868
(dp869
g9
g1
(g10
g11
Ntp870
Rp871
(dp872
g15
(F-3.685199
tp873
sbsbag1
(g2
g3
(lp874
g58
aI3
aF0.4572112776076056
aI9
atp875
Rp876
(dp877
g9
g1
(g10
g11
Ntp878
Rp879
(dp880
g15
(F-3.666513
tp881
sbsbag1
(g2
g3
(lp882
g5
aI2
aF0.8135501973808441
aI10
atp883
Rp884
(dp885
g9
g1
(g10
g11
Ntp886
Rp887
(dp888
g15
(F-3.697708
tp889
sbsbag1
(g2
g3
(lp890
g5
aI2
aF0.14775975925082074
aI5
atp891
Rp892
(dp893
g9
g1
(g10
g11
Ntp894
Rp895
(dp896
g15
(F-3.662252
tp897
sbsbag1
(g2
g3
(lp898
g58
aI6
aF0.608221334057451
aI4
atp899
Rp900
(dp901
g9
g1
(g10
g11
Ntp902
Rp903
(dp904
g15
(F-3.708347
tp905
sbsbag1
(g2
g3
(lp906
g58
aI4
aF0.6790730687098849
aI1
atp907
Rp908
(dp909
g9
g1
(g10
g11
Ntp910
Rp911
(dp912
g15
(F-3.693298
tp913
sbsbag1
(g2
g3
(lp914
g5
aI2
aF0.6894033484990555
aI6
atp915
Rp916
(dp917
g9
g1
(g10
g11
Ntp918
Rp919
(dp920
g15
(F-3.688453
tp921
sbsbag1
(g2
g3
(lp922
g5
aI6
aF0.487316507397619
aI6
atp923
Rp924
(dp925
g9
g1
(g10
g11
Ntp926
Rp927
(dp928
g15
(F-3.704113
tp929
sbsbag1
(g2
g3
(lp930
g58
aI2
aF0.08008562715218315
aI9
atp931
Rp932
(dp933
g9
g1
(g10
g11
Ntp934
Rp935
(dp936
g15
(F-3.670556
tp937
sbsbag1
(g2
g3
(lp938
g5
aI3
aF0.35534941227362915
aI10
atp939
Rp940
(dp941
g9
g1
(g10
g11
Ntp942
Rp943
(dp944
g15
(F-3.684124
tp945
sbsbag1
(g2
g3
(lp946
g58
aI1
aF0.09003698279342287
aI3
atp947
Rp948
(dp949
g9
g1
(g10
g11
Ntp950
Rp951
(dp952
g15
(F-3.688048
tp953
sbsbag1
(g2
g3
(lp954
g58
aI1
aF0.5644363383010325
aI1
atp955
Rp956
(dp957
g9
g1
(g10
g11
Ntp958
Rp959
(dp960
g15
(F-3.684658
tp961
sbsbag1
(g2
g3
(lp962
g58
aI4
aF0.8488418084784544
aI4
atp963
Rp964
(dp965
g9
g1
(g10
g11
Ntp966
Rp967
(dp968
g15
(F-3.686509
tp969
sbsbag1
(g2
g3
(lp970
g58
aI4
aF0.4131887738276726
aI6
atp971
Rp972
(dp973
g9
g1
(g10
g11
Ntp974
Rp975
(dp976
g15
(F-3.677267
tp977
sbsbag1
(g2
g3
(lp978
g58
aI6
aF0.5031546318659088
aI9
atp979
Rp980
(dp981
g9
g1
(g10
g11
Ntp982
Rp983
(dp984
g15
(F-3.68507
tp985
sbsbag1
(g2
g3
(lp986
g5
aI9
aF0.6910598039414342
aI10
atp987
Rp988
(dp989
g9
g1
(g10
g11
Ntp990
Rp991
(dp992
g15
(F-3.818836
tp993
sbsbag1
(g2
g3
(lp994
g5
aI2
aF0.2243924196386532
aI4
atp995
Rp996
(dp997
g9
g1
(g10
g11
Ntp998
Rp999
(dp1000
g15
(F-3.659941
tp1001
sbsbag1
(g2
g3
(lp1002
g5
aI8
aF0.8433283618107376
aI6
atp1003
Rp1004
(dp1005
g9
g1
(g10
g11
Ntp1006
Rp1007
(dp1008
g15
(F-3.819622
tp1009
sbsbag1
(g2
g3
(lp1010
g58
aI2
aF0.41482475330474033
aI4
atp1011
Rp1012
(dp1013
g9
g1
(g10
g11
Ntp1014
Rp1015
(dp1016
g15
(F-3.664376
tp1017
sbsbag1
(g2
g3
(lp1018
g5
aI6
aF0.2682679193571704
aI8
atp1019
Rp1020
(dp1021
g9
g1
(g10
g11
Ntp1022
Rp1023
(dp1024
g15
(F-3.699382
tp1025
sbsbag1
(g2
g3
(lp1026
g58
aI7
aF0.693826796434255
aI2
atp1027
Rp1028
(dp1029
g9
g1
(g10
g11
Ntp1030
Rp1031
(dp1032
g15
(F-3.73195
tp1033
sbsbag1
(g2
g3
(lp1034
g58
aI3
aF0.04375073666234408
aI0
atp1035
Rp1036
(dp1037
g9
g1
(g10
g11
Ntp1038
Rp1039
(dp1040
g15
(F-3.656079
tp1041
sbsbag1
(g2
g3
(lp1042
g58
aI8
aF0.554879722207038
aI4
atp1043
Rp1044
(dp1045
g9
g1
(g10
g11
Ntp1046
Rp1047
(dp1048
g15
(F-3.706308
tp1049
sbsbag1
(g2
g3
(lp1050
g58
aI4
aF0.9791209917687307
aI1
atp1051
Rp1052
(dp1053
g9
g1
(g10
g11
Ntp1054
Rp1055
(dp1056
g15
(F-3.700353
tp1057
sbsbag1
(g2
g3
(lp1058
g58
aI1
aF0.7771718827550003
aI3
atp1059
Rp1060
(dp1061
g9
g1
(g10
g11
Ntp1062
Rp1063
(dp1064
g15
(F-3.687245
tp1065
sbsbag1
(g2
g3
(lp1066
g58
aI3
aF0.33883262698353067
aI10
atp1067
Rp1068
(dp1069
g9
g1
(g10
g11
Ntp1070
Rp1071
(dp1072
g15
(F-3.670885
tp1073
sbsbag1
(g2
g3
(lp1074
g58
aI5
aF0.360387520431644
aI2
atp1075
Rp1076
(dp1077
g9
g1
(g10
g11
Ntp1078
Rp1079
(dp1080
g15
(F-3.667121
tp1081
sbsbag1
(g2
g3
(lp1082
g58
aI10
aF0.35114364157043976
aI7
atp1083
Rp1084
(dp1085
g9
g1
(g10
g11
Ntp1086
Rp1087
(dp1088
g15
(F-3.715375
tp1089
sbsbag1
(g2
g3
(lp1090
g5
aI5
aF0.34715080397444664
aI1
atp1091
Rp1092
(dp1093
g9
g1
(g10
g11
Ntp1094
Rp1095
(dp1096
g15
(F-3.703646
tp1097
sbsbag1
(g2
g3
(lp1098
g58
aI9
aF0.2453475446089145
aI1
atp1099
Rp1100
(dp1101
g9
g1
(g10
g11
Ntp1102
Rp1103
(dp1104
g15
(F-3.698896
tp1105
sbsbag1
(g2
g3
(lp1106
g58
aI1
aF0.2973133105758937
aI1
atp1107
Rp1108
(dp1109
g9
g1
(g10
g11
Ntp1110
Rp1111
(dp1112
g15
(F-3.684059
tp1113
sbsbag1
(g2
g3
(lp1114
g5
aI7
aF0.1475463774024287
aI10
atp1115
Rp1116
(dp1117
g9
g1
(g10
g11
Ntp1118
Rp1119
(dp1120
g15
(F-3.690418
tp1121
sbsbag1
(g2
g3
(lp1122
g5
aI1
aF0.9899426374105145
aI10
atp1123
Rp1124
(dp1125
g9
g1
(g10
g11
Ntp1126
Rp1127
(dp1128
g15
(F-3.691849
tp1129
sbsbag1
(g2
g3
(lp1130
g58
aI3
aF0.4298917578252762
aI7
atp1131
Rp1132
(dp1133
g9
g1
(g10
g11
Ntp1134
Rp1135
(dp1136
g15
(F-3.662764
tp1137
sbsbag1
(g2
g3
(lp1138
g5
aI5
aF0.5335196708017103
aI3
atp1139
Rp1140
(dp1141
g9
g1
(g10
g11
Ntp1142
Rp1143
(dp1144
g15
(F-3.715526
tp1145
sbsbag1
(g2
g3
(lp1146
g5
aI10
aF0.19744796168542766
aI9
atp1147
Rp1148
(dp1149
g9
g1
(g10
g11
Ntp1150
Rp1151
(dp1152
g15
(F-3.77141
tp1153
sbsbag1
(g2
g3
(lp1154
g5
aI9
aF0.9482161308098769
aI8
atp1155
Rp1156
(dp1157
g9
g1
(g10
g11
Ntp1158
Rp1159
(dp1160
g15
(F-3.844184
tp1161
sbsbag1
(g2
g3
(lp1162
g58
aI6
aF0.24331444151908987
aI0
atp1163
Rp1164
(dp1165
g9
g1
(g10
g11
Ntp1166
Rp1167
(dp1168
g15
(F-3.67614
tp1169
sbsbag1
(g2
g3
(lp1170
g58
aI3
aF0.08041285007874632
aI2
atp1171
Rp1172
(dp1173
g9
g1
(g10
g11
Ntp1174
Rp1175
(dp1176
g15
(F-3.657326
tp1177
sbsbag1
(g2
g3
(lp1178
g58
aI8
aF0.018341041116513024
aI4
atp1179
Rp1180
(dp1181
g9
g1
(g10
g11
Ntp1182
Rp1183
(dp1184
g15
(F-3.689343
tp1185
sbsbag1
(g2
g3
(lp1186
g58
aI10
aF0.17133413773854045
aI2
atp1187
Rp1188
(dp1189
g9
g1
(g10
g11
Ntp1190
Rp1191
(dp1192
g15
(F-3.719949
tp1193
sbsbag1
(g2
g3
(lp1194
g5
aI7
aF0.1734797890670695
aI0
atp1195
Rp1196
(dp1197
g9
g1
(g10
g11
Ntp1198
Rp1199
(dp1200
g15
(F-3.69809
tp1201
sbsbag1
(g2
g3
(lp1202
g5
aI7
aF0.02537965970492373
aI2
atp1203
Rp1204
(dp1205
g9
g1
(g10
g11
Ntp1206
Rp1207
(dp1208
g15
(F-3.690485
tp1209
sbsbag1
(g2
g3
(lp1210
g58
aI8
aF0.5235474845623362
aI5
atp1211
Rp1212
(dp1213
g9
g1
(g10
g11
Ntp1214
Rp1215
(dp1216
g15
(F-3.734363
tp1217
sbsbag1
(g2
g3
(lp1218
g5
aI4
aF0.3131099316972008
aI5
atp1219
Rp1220
(dp1221
g9
g1
(g10
g11
Ntp1222
Rp1223
(dp1224
g15
(F-3.680156
tp1225
sbsbag1
(g2
g3
(lp1226
g58
aI5
aF0.044881531964150234
aI5
atp1227
Rp1228
(dp1229
g9
g1
(g10
g11
Ntp1230
Rp1231
(dp1232
g15
(F-3.665406
tp1233
sbsbag1
(g2
g3
(lp1234
g58
aI3
aF0.3464085982132564
aI0
atp1235
Rp1236
(dp1237
g9
g1
(g10
g11
Ntp1238
Rp1239
(dp1240
g15
(F-3.663193
tp1241
sbsbag1
(g2
g3
(lp1242
g58
aI1
aF0.7834936022347673
aI1
atp1243
Rp1244
(dp1245
g9
g1
(g10
g11
Ntp1246
Rp1247
(dp1248
g15
(F-3.684719
tp1249
sbsbag1
(g2
g3
(lp1250
g5
aI9
aF0.8050796459577414
aI3
atp1251
Rp1252
(dp1253
g9
g1
(g10
g11
Ntp1254
Rp1255
(dp1256
g15
(F-3.827312
tp1257
sbsbag1
(g2
g3
(lp1258
g58
aI2
aF0.5719456920752437
aI2
atp1259
Rp1260
(dp1261
g9
g1
(g10
g11
Ntp1262
Rp1263
(dp1264
g15
(F-3.666957
tp1265
sbsbag1
(g2
g3
(lp1266
g5
aI4
aF0.42853217500935004
aI9
atp1267
Rp1268
(dp1269
g9
g1
(g10
g11
Ntp1270
Rp1271
(dp1272
g15
(F-3.694874
tp1273
sbsbag1
(g2
g3
(lp1274
g58
aI9
aF0.6568707660581806
aI9
atp1275
Rp1276
(dp1277
g9
g1
(g10
g11
Ntp1278
Rp1279
(dp1280
g15
(F-3.7563
tp1281
sbsbag1
(g2
g3
(lp1282
g5
aI3
aF0.6249477777103987
aI10
atp1283
Rp1284
(dp1285
g9
g1
(g10
g11
Ntp1286
Rp1287
(dp1288
g15
(F-3.696247
tp1289
sbsbag1
(g2
g3
(lp1290
g58
aI1
aF0.6933171428196191
aI7
atp1291
Rp1292
(dp1293
g9
g1
(g10
g11
Ntp1294
Rp1295
(dp1296
g15
(F-3.691013
tp1297
sbsbag1
(g2
g3
(lp1298
g5
aI2
aF0.24735329403045336
aI5
atp1299
Rp1300
(dp1301
g9
g1
(g10
g11
Ntp1302
Rp1303
(dp1304
g15
(F-3.662991
tp1305
sbsbag1
(g2
g3
(lp1306
g58
aI3
aF0.19462402909565324
aI6
atp1307
Rp1308
(dp1309
g9
g1
(g10
g11
Ntp1310
Rp1311
(dp1312
g15
(F-3.659701
tp1313
sbsbag1
(g2
g3
(lp1314
g5
aI1
aF0.9861383837720064
aI4
atp1315
Rp1316
(dp1317
g9
g1
(g10
g11
Ntp1318
Rp1319
(dp1320
g15
(F-3.689534
tp1321
sbsbag1
(g2
g3
(lp1322
g5
aI5
aF0.668714257526836
aI3
atp1323
Rp1324
(dp1325
g9
g1
(g10
g11
Ntp1326
Rp1327
(dp1328
g15
(F-3.746571
tp1329
sbsbag1
(g2
g3
(lp1330
g58
aI10
aF0.7266879099458367
aI7
atp1331
Rp1332
(dp1333
g9
g1
(g10
g11
Ntp1334
Rp1335
(dp1336
g15
(F-3.767675
tp1337
sbsbag1
(g2
g3
(lp1338
g58
aI4
aF0.953077219746378
aI10
atp1339
Rp1340
(dp1341
g9
g1
(g10
g11
Ntp1342
Rp1343
(dp1344
g15
(F-3.69811
tp1345
sbsbag1
(g2
g3
(lp1346
g5
aI6
aF0.25425891712071325
aI5
atp1347
Rp1348
(dp1349
g9
g1
(g10
g11
Ntp1350
Rp1351
(dp1352
g15
(F-3.70636
tp1353
sbsbag1
(g2
g3
(lp1354
g58
aI5
aF0.947057137068666
aI5
atp1355
Rp1356
(dp1357
g9
g1
(g10
g11
Ntp1358
Rp1359
(dp1360
g15
(F-3.707974
tp1361
sbsbag1
(g2
g3
(lp1362
g58
aI7
aF0.927577711882898
aI5
atp1363
Rp1364
(dp1365
g9
g1
(g10
g11
Ntp1366
Rp1367
(dp1368
g15
(F-3.727173
tp1369
sbsbag1
(g2
g3
(lp1370
g5
aI9
aF0.5537910647943446
aI7
atp1371
Rp1372
(dp1373
g9
g1
(g10
g11
Ntp1374
Rp1375
(dp1376
g15
(F-3.82981
tp1377
sbsbag1
(g2
g3
(lp1378
g5
aI3
aF0.7624843618652603
aI8
atp1379
Rp1380
(dp1381
g9
g1
(g10
g11
Ntp1382
Rp1383
(dp1384
g15
(F-3.702689
tp1385
sbsbag1
(g2
g3
(lp1386
g58
aI9
aF0.10947389004346542
aI9
atp1387
Rp1388
(dp1389
g9
g1
(g10
g11
Ntp1390
Rp1391
(dp1392
g15
(F-3.686631
tp1393
sbsbag1
(g2
g3
(lp1394
g58
aI2
aF0.8118775263835382
aI9
atp1395
Rp1396
(dp1397
g9
g1
(g10
g11
Ntp1398
Rp1399
(dp1400
g15
(F-3.676734
tp1401
sbsbag1
(g2
g3
(lp1402
g58
aI3
aF0.8148616451466302
aI3
atp1403
Rp1404
(dp1405
g9
g1
(g10
g11
Ntp1406
Rp1407
(dp1408
g15
(F-3.673584
tp1409
sbsbag1
(g2
g3
(lp1410
g5
aI2
aF0.5030555358833203
aI8
atp1411
Rp1412
(dp1413
g9
g1
(g10
g11
Ntp1414
Rp1415
(dp1416
g15
(F-3.678472
tp1417
sbsbag1
(g2
g3
(lp1418
g58
aI1
aF0.4215142556777026
aI2
atp1419
Rp1420
(dp1421
g9
g1
(g10
g11
Ntp1422
Rp1423
(dp1424
g15
(F-3.684942
tp1425
sbsbag1
(g2
g3
(lp1426
g5
aI9
aF0.08709485799641825
aI5
atp1427
Rp1428
(dp1429
g9
g1
(g10
g11
Ntp1430
Rp1431
(dp1432
g15
(F-3.729076
tp1433
sbsbag1
(g2
g3
(lp1434
g58
aI8
aF0.7367848234538072
aI3
atp1435
Rp1436
(dp1437
g9
g1
(g10
g11
Ntp1438
Rp1439
(dp1440
g15
(F-3.75222
tp1441
sbsbag1
(g2
g3
(lp1442
g5
aI9
aF0.7799399463341983
aI2
atp1443
Rp1444
(dp1445
g9
g1
(g10
g11
Ntp1446
Rp1447
(dp1448
g15
(F-3.84077
tp1449
sbsbag1
(g2
g3
(lp1450
g58
aI1
aF0.15320223154780133
aI7
atp1451
Rp1452
(dp1453
g9
g1
(g10
g11
Ntp1454
Rp1455
(dp1456
g15
(F-3.691622
tp1457
sbsbag1
(g2
g3
(lp1458
g5
aI6
aF0.5724163143040943
aI3
atp1459
Rp1460
(dp1461
g9
g1
(g10
g11
Ntp1462
Rp1463
(dp1464
g15
(F-3.719598
tp1465
sbsbag1
(g2
g3
(lp1466
g58
aI6
aF0.32754156113992305
aI3
atp1467
Rp1468
(dp1469
g9
g1
(g10
g11
Ntp1470
Rp1471
(dp1472
g15
(F-3.68514
tp1473
sbsbag1
(g2
g3
(lp1474
g5
aI7
aF0.0026105797754133464
aI10
atp1475
Rp1476
(dp1477
g9
g1
(g10
g11
Ntp1478
Rp1479
(dp1480
g15
(F-3.692562
tp1481
sbsbag1
(g2
g3
(lp1482
g5
aI5
aF0.24130579499225357
aI10
atp1483
Rp1484
(dp1485
g9
g1
(g10
g11
Ntp1486
Rp1487
(dp1488
g15
(F-3.686912
tp1489
sbsbag1
(g2
g3
(lp1490
g58
aI8
aF0.2591914532118825
aI10
atp1491
Rp1492
(dp1493
g9
g1
(g10
g11
Ntp1494
Rp1495
(dp1496
g15
(F-3.700784
tp1497
sbsbag1
(g2
g3
(lp1498
g58
aI5
aF0.15383223357727738
aI3
atp1499
Rp1500
(dp1501
g9
g1
(g10
g11
Ntp1502
Rp1503
(dp1504
g15
(F-3.665878
tp1505
sbsbag1
(g2
g3
(lp1506
g5
aI1
aF0.29619941312530895
aI7
atp1507
Rp1508
(dp1509
g9
g1
(g10
g11
Ntp1510
Rp1511
(dp1512
g15
(F-3.686713
tp1513
sbsbag1
(g2
g3
(lp1514
g58
aI4
aF0.9387364220590932
aI5
atp1515
Rp1516
(dp1517
g9
g1
(g10
g11
Ntp1518
Rp1519
(dp1520
g15
(F-3.689762
tp1521
sbsbag1
(g2
g3
(lp1522
g58
aI7
aF0.5184008660865751
aI10
atp1523
Rp1524
(dp1525
g9
g1
(g10
g11
Ntp1526
Rp1527
(dp1528
g15
(F-3.683056
tp1529
sbsbag1
(g2
g3
(lp1530
g58
aI10
aF0.28966197661629844
aI10
atp1531
Rp1532
(dp1533
g9
g1
(g10
g11
Ntp1534
Rp1535
(dp1536
g15
(F-3.710835
tp1537
sbsbag1
(g2
g3
(lp1538
g58
aI8
aF0.5661391773883478
aI10
atp1539
Rp1540
(dp1541
g9
g1
(g10
g11
Ntp1542
Rp1543
(dp1544
g15
(F-3.702521
tp1545
sbsbag1
(g2
g3
(lp1546
g58
aI3
aF0.67833781881278
aI5
atp1547
Rp1548
(dp1549
g9
g1
(g10
g11
Ntp1550
Rp1551
(dp1552
g15
(F-3.680348
tp1553
sbsbag1
(g2
g3
(lp1554
g58
aI6
aF0.6093542818754567
aI4
atp1555
Rp1556
(dp1557
g9
g1
(g10
g11
Ntp1558
Rp1559
(dp1560
g15
(F-3.706223
tp1561
sbsbag1
(g2
g3
(lp1562
g58
aI4
aF0.20413960415030818
aI6
atp1563
Rp1564
(dp1565
g9
g1
(g10
g11
Ntp1566
Rp1567
(dp1568
g15
(F-3.658266
tp1569
sbsbag1
(g2
g3
(lp1570
g58
aI2
aF0.26999648940606535
aI9
atp1571
Rp1572
(dp1573
g9
g1
(g10
g11
Ntp1574
Rp1575
(dp1576
g15
(F-3.67086
tp1577
sbsbag1
(g2
g3
(lp1578
g5
aI3
aF0.5777293025269231
aI10
atp1579
Rp1580
(dp1581
g9
g1
(g10
g11
Ntp1582
Rp1583
(dp1584
g15
(F-3.690995
tp1585
sbsbag1
(g2
g3
(lp1586
g58
aI6
aF0.9349053913186646
aI8
atp1587
Rp1588
(dp1589
g9
g1
(g10
g11
Ntp1590
Rp1591
(dp1592
g15
(F-3.703589
tp1593
sbsbag1
(g2
g3
(lp1594
g5
aI7
aF0.28742904931506297
aI9
atp1595
Rp1596
(dp1597
g9
g1
(g10
g11
Ntp1598
Rp1599
(dp1600
g15
(F-3.715736
tp1601
sbsbag1
(g2
g3
(lp1602
g5
aI4
aF0.27064975080591447
aI0
atp1603
Rp1604
(dp1605
g9
g1
(g10
g11
Ntp1606
Rp1607
(dp1608
g15
(F-3.685566
tp1609
sbsbag1
(g2
g3
(lp1610
g58
aI9
aF0.18640083974411414
aI1
atp1611
Rp1612
(dp1613
g9
g1
(g10
g11
Ntp1614
Rp1615
(dp1616
g15
(F-3.701739
tp1617
sbsbag1
(g2
g3
(lp1618
g58
aI5
aF0.41809086603238177
aI4
atp1619
Rp1620
(dp1621
g9
g1
(g10
g11
Ntp1622
Rp1623
(dp1624
g15
(F-3.674113
tp1625
sbsbag1
(g2
g3
(lp1626
g5
aI3
aF0.07498924204887447
aI9
atp1627
Rp1628
(dp1629
g9
g1
(g10
g11
Ntp1630
Rp1631
(dp1632
g15
(F-3.662768
tp1633
sbsbag1
(g2
g3
(lp1634
g5
aI4
aF0.2375029805231238
aI4
atp1635
Rp1636
(dp1637
g9
g1
(g10
g11
Ntp1638
Rp1639
(dp1640
g15
(F-3.680999
tp1641
sbsbag1
(g2
g3
(lp1642
g58
aI7
aF0.9615445574767147
aI4
atp1643
Rp1644
(dp1645
g9
g1
(g10
g11
Ntp1646
Rp1647
(dp1648
g15
(F-3.73479
tp1649
sbsbag1
(g2
g3
(lp1650
g58
aI3
aF0.3833230735889691
aI6
atp1651
Rp1652
(dp1653
g9
g1
(g10
g11
Ntp1654
Rp1655
(dp1656
g15
(F-3.663481
tp1657
sbsbag1
(g2
g3
(lp1658
g58
aI1
aF0.06698011887897193
aI4
atp1659
Rp1660
(dp1661
g9
g1
(g10
g11
Ntp1662
Rp1663
(dp1664
g15
(F-3.691649
tp1665
sbsbag1
(g2
g3
(lp1666
g5
aI6
aF0.6392902653709126
aI5
atp1667
Rp1668
(dp1669
g9
g1
(g10
g11
Ntp1670
Rp1671
(dp1672
g15
(F-3.715667
tp1673
sbsbag1
(g2
g3
(lp1674
g58
aI1
aF0.7668775127026729
aI10
atp1675
Rp1676
(dp1677
g9
g1
(g10
g11
Ntp1678
Rp1679
(dp1680
g15
(F-3.693774
tp1681
sbsbag1
(g2
g3
(lp1682
g58
aI4
aF0.17080498837889901
aI7
atp1683
Rp1684
(dp1685
g9
g1
(g10
g11
Ntp1686
Rp1687
(dp1688
g15
(F-3.661879
tp1689
sbsbag1
(g2
g3
(lp1690
g5
aI6
aF0.31930055314852457
aI8
atp1691
Rp1692
(dp1693
g9
g1
(g10
g11
Ntp1694
Rp1695
(dp1696
g15
(F-3.707309
tp1697
sbsbag1
(g2
g3
(lp1698
g58
aI4
aF0.8036659442902047
aI7
atp1699
Rp1700
(dp1701
g9
g1
(g10
g11
Ntp1702
Rp1703
(dp1704
g15
(F-3.68498
tp1705
sbsbag1
(g2
g3
(lp1706
g5
aI4
aF0.02930336409526413
aI8
atp1707
Rp1708
(dp1709
g9
g1
(g10
g11
Ntp1710
Rp1711
(dp1712
g15
(F-3.669338
tp1713
sbsbag1
(g2
g3
(lp1714
g5
aI4
aF0.04440536614894319
aI0
atp1715
Rp1716
(dp1717
g9
g1
(g10
g11
Ntp1718
Rp1719
(dp1720
g15
(F-3.667623
tp1721
sbsbag1
(g2
g3
(lp1722
g58
aI6
aF0.9739025789338444
aI1
atp1723
Rp1724
(dp1725
g9
g1
(g10
g11
Ntp1726
Rp1727
(dp1728
g15
(F-3.732821
tp1729
sbsbag1
(g2
g3
(lp1730
g5
aI8
aF0.3342726369400082
aI7
atp1731
Rp1732
(dp1733
g9
g1
(g10
g11
Ntp1734
Rp1735
(dp1736
g15
(F-3.74837
tp1737
sbsbag1
(g2
g3
(lp1738
g5
aI5
aF0.7091576218738155
aI4
atp1739
Rp1740
(dp1741
g9
g1
(g10
g11
Ntp1742
Rp1743
(dp1744
g15
(F-3.742903
tp1745
sbsbag1
(g2
g3
(lp1746
g58
aI4
aF0.11119145951028575
aI9
atp1747
Rp1748
(dp1749
g9
g1
(g10
g11
Ntp1750
Rp1751
(dp1752
g15
(F-3.661117
tp1753
sbsbag1
(g2
g3
(lp1754
g5
aI3
aF0.4080843788340217
aI9
atp1755
Rp1756
(dp1757
g9
g1
(g10
g11
Ntp1758
Rp1759
(dp1760
g15
(F-3.678328
tp1761
sbsbag1
(g2
g3
(lp1762
g5
aI3
aF0.06387387797541588
aI2
atp1763
Rp1764
(dp1765
g9
g1
(g10
g11
Ntp1766
Rp1767
(dp1768
g15
(F-3.663525
tp1769
sbsbag1
(g2
g3
(lp1770
g5
aI1
aF0.394166104675839
aI2
atp1771
Rp1772
(dp1773
g9
g1
(g10
g11
Ntp1774
Rp1775
(dp1776
g15
(F-3.685633
tp1777
sbsbag1
(g2
g3
(lp1778
g5
aI1
aF0.9090775502222278
aI10
atp1779
Rp1780
(dp1781
g9
g1
(g10
g11
Ntp1782
Rp1783
(dp1784
g15
(F-3.690212
tp1785
sbsbag1
(g2
g3
(lp1786
g58
aI2
aF0.5916473976322977
aI2
atp1787
Rp1788
(dp1789
g9
g1
(g10
g11
Ntp1790
Rp1791
(dp1792
g15
(F-3.668039
tp1793
sbsbag1
(g2
g3
(lp1794
g5
aI9
aF0.10219562017456396
aI7
atp1795
Rp1796
(dp1797
g9
g1
(g10
g11
Ntp1798
Rp1799
(dp1800
g15
(F-3.730939
tp1801
sbsbag1
(g2
g3
(lp1802
g58
aI1
aF0.7476767999522783
aI5
atp1803
Rp1804
(dp1805
g9
g1
(g10
g11
Ntp1806
Rp1807
(dp1808
g15
(F-3.688092
tp1809
sbsbag1
(g2
g3
(lp1810
g58
aI9
aF0.1082726094501556
aI0
atp1811
Rp1812
(dp1813
g9
g1
(g10
g11
Ntp1814
Rp1815
(dp1816
g15
(F-3.706526
tp1817
sbsbag1
(g2
g3
(lp1818
g58
aI7
aF0.95836897615265
aI10
atp1819
Rp1820
(dp1821
g9
g1
(g10
g11
Ntp1822
Rp1823
(dp1824
g15
(F-3.706835
tp1825
sbsbag1
(g2
g3
(lp1826
g5
aI4
aF0.623633269054068
aI1
atp1827
Rp1828
(dp1829
g9
g1
(g10
g11
Ntp1830
Rp1831
(dp1832
g15
(F-3.698772
tp1833
sbsbag1
(g2
g3
(lp1834
g58
aI5
aF0.4897684685883873
aI3
atp1835
Rp1836
(dp1837
g9
g1
(g10
g11
Ntp1838
Rp1839
(dp1840
g15
(F-3.683718
tp1841
sbsbag1
(g2
g3
(lp1842
g58
aI1
aF0.8749704423148674
aI9
atp1843
Rp1844
(dp1845
g9
g1
(g10
g11
Ntp1846
Rp1847
(dp1848
g15
(F-3.692521
tp1849
sbsbag1
(g2
g3
(lp1850
g5
aI6
aF0.5226563335466566
aI7
atp1851
Rp1852
(dp1853
g9
g1
(g10
g11
Ntp1854
Rp1855
(dp1856
g15
(F-3.711045
tp1857
sbsbag1
(g2
g3
(lp1858
g5
aI3
aF0.7943467713955366
aI7
atp1859
Rp1860
(dp1861
g9
g1
(g10
g11
Ntp1862
Rp1863
(dp1864
g15
(F-3.697626
tp1865
sbsbag1
(g2
g3
(lp1866
g58
aI4
aF0.7482153277049813
aI5
atp1867
Rp1868
(dp1869
g9
g1
(g10
g11
Ntp1870
Rp1871
(dp1872
g15
(F-3.677621
tp1873
sbsbag1
(g2
g3
(lp1874
g5
aI2
aF0.7915134086354952
aI10
atp1875
Rp1876
(dp1877
g9
g1
(g10
g11
Ntp1878
Rp1879
(dp1880
g15
(F-3.692085
tp1881
sbsbag1
(g2
g3
(lp1882
g5
aI10
aF0.17351882368953975
aI7
atp1883
Rp1884
(dp1885
g9
g1
(g10
g11
Ntp1886
Rp1887
(dp1888
g15
(F-3.764489
tp1889
sbsbag1
(g2
g3
(lp1890
g5
aI1
aF0.43990439653442415
aI7
atp1891
Rp1892
(dp1893
g9
g1
(g10
g11
Ntp1894
Rp1895
(dp1896
g15
(F-3.686545
tp1897
sbsbag1
(g2
g3
(lp1898
g5
aI2
aF0.6107726545888645
aI6
atp1899
Rp1900
(dp1901
g9
g1
(g10
g11
Ntp1902
Rp1903
(dp1904
g15
(F-3.674673
tp1905
sbsbag1
(g2
g3
(lp1906
g58
aI8
aF0.4165232393995896
aI6
atp1907
Rp1908
(dp1909
g9
g1
(g10
g11
Ntp1910
Rp1911
(dp1912
g15
(F-3.705663
tp1913
sbsbag1
(g2
g3
(lp1914
g5
aI2
aF0.6193595127087955
aI6
atp1915
Rp1916
(dp1917
g9
g1
(g10
g11
Ntp1918
Rp1919
(dp1920
g15
(F-3.675724
tp1921
sbsbag1
(g2
g3
(lp1922
g5
aI1
aF0.2269717003476034
aI0
atp1923
Rp1924
(dp1925
g9
g1
(g10
g11
Ntp1926
Rp1927
(dp1928
g15
(F-3.685392
tp1929
sbsbag1
(g2
g3
(lp1930
g58
aI10
aF0.7740006543331961
aI4
atp1931
Rp1932
(dp1933
g9
g1
(g10
g11
Ntp1934
Rp1935
(dp1936
g15
(F-3.78602
tp1937
sbsbag1
(g2
g3
(lp1938
g58
aI5
aF0.8211087216304317
aI3
atp1939
Rp1940
(dp1941
g9
g1
(g10
g11
Ntp1942
Rp1943
(dp1944
g15
(F-3.707275
tp1945
sbsbag1
(g2
g3
(lp1946
g5
aI1
aF0.3325493600832228
aI4
atp1947
Rp1948
(dp1949
g9
g1
(g10
g11
Ntp1950
Rp1951
(dp1952
g15
(F-3.686207
tp1953
sbsbag1
(g2
g3
(lp1954
g58
aI5
aF0.2929596369177845
aI6
atp1955
Rp1956
(dp1957
g9
g1
(g10
g11
Ntp1958
Rp1959
(dp1960
g15
(F-3.673138
tp1961
sbsbag1
(g2
g3
(lp1962
g5
aI7
aF0.406302378349064
aI4
atp1963
Rp1964
(dp1965
g9
g1
(g10
g11
Ntp1966
Rp1967
(dp1968
g15
(F-3.737789
tp1969
sbsbag1
(g2
g3
(lp1970
g5
aI2
aF0.6609990558997361
aI4
atp1971
Rp1972
(dp1973
g9
g1
(g10
g11
Ntp1974
Rp1975
(dp1976
g15
(F-3.680178
tp1977
sbsbag1
(g2
g3
(lp1978
g5
aI4
aF0.03198429542547376
aI6
atp1979
Rp1980
(dp1981
g9
g1
(g10
g11
Ntp1982
Rp1983
(dp1984
g15
(F-3.670692
tp1985
sbsbag1
(g2
g3
(lp1986
g58
aI5
aF0.7305693673037855
aI4
atp1987
Rp1988
(dp1989
g9
g1
(g10
g11
Ntp1990
Rp1991
(dp1992
g15
(F-3.693522
tp1993
sbsbag1
(g2
g3
(lp1994
g5
aI5
aF0.33368807720474436
aI0
atp1995
Rp1996
(dp1997
g9
g1
(g10
g11
Ntp1998
Rp1999
(dp2000
g15
(F-3.702425
tp2001
sbsbag1
(g2
g3
(lp2002
g5
aI7
aF0.9625582859652918
aI1
atp2003
Rp2004
(dp2005
g9
g1
(g10
g11
Ntp2006
Rp2007
(dp2008
g15
(F-3.791063
tp2009
sbsbag1
(g2
g3
(lp2010
g58
aI10
aF0.7396438655791564
aI5
atp2011
Rp2012
(dp2013
g9
g1
(g10
g11
Ntp2014
Rp2015
(dp2016
g15
(F-3.775279
tp2017
sbsbag1
(g2
g3
(lp2018
g5
aI5
aF0.6483308222858628
aI3
atp2019
Rp2020
(dp2021
g9
g1
(g10
g11
Ntp2022
Rp2023
(dp2024
g15
(F-3.747379
tp2025
sbsbag1
(g2
g3
(lp2026
g58
aI3
aF0.21433210005881098
aI1
atp2027
Rp2028
(dp2029
g9
g1
(g10
g11
Ntp2030
Rp2031
(dp2032
g15
(F-3.657589
tp2033
sbsbag1
(g2
g3
(lp2034
g5
aI4
aF0.5642245409090433
aI6
atp2035
Rp2036
(dp2037
g9
g1
(g10
g11
Ntp2038
Rp2039
(dp2040
g15
(F-3.704064
tp2041
sbsbag1
(g2
g3
(lp2042
g5
aI8
aF0.07271045282686339
aI8
atp2043
Rp2044
(dp2045
g9
g1
(g10
g11
Ntp2046
Rp2047
(dp2048
g15
(F-3.71233
tp2049
sbsbag1
(g2
g3
(lp2050
g58
aI9
aF0.0460389699279411
aI5
atp2051
Rp2052
(dp2053
g9
g1
(g10
g11
Ntp2054
Rp2055
(dp2056
g15
(F-3.700397
tp2057
sbsbag1
(g2
g3
(lp2058
g5
aI1
aF0.9265344212952188
aI6
atp2059
Rp2060
(dp2061
g9
g1
(g10
g11
Ntp2062
Rp2063
(dp2064
g15
(F-3.689677
tp2065
sbsbag1
(g2
g3
(lp2066
g58
aI5
aF0.9939992677926099
aI2
atp2067
Rp2068
(dp2069
g9
g1
(g10
g11
Ntp2070
Rp2071
(dp2072
g15
(F-3.721551
tp2073
sbsbag1
(g2
g3
(lp2074
g58
aI3
aF0.31877743250866275
aI2
atp2075
Rp2076
(dp2077
g9
g1
(g10
g11
Ntp2078
Rp2079
(dp2080
g15
(F-3.665393
tp2081
sbsbag1
(g2
g3
(lp2082
g58
aI7
aF0.6151240243708889
aI6
atp2083
Rp2084
(dp2085
g9
g1
(g10
g11
Ntp2086
Rp2087
(dp2088
g15
(F-3.708954
tp2089
sbsbag1
(g2
g3
(lp2090
g5
aI7
aF0.693137350236346
aI9
atp2091
Rp2092
(dp2093
g9
g1
(g10
g11
Ntp2094
Rp2095
(dp2096
g15
(F-3.76568
tp2097
sbsbag1
(g2
g3
(lp2098
g5
aI5
aF0.3509541999142737
aI8
atp2099
Rp2100
(dp2101
g9
g1
(g10
g11
Ntp2102
Rp2103
(dp2104
g15
(F-3.692983
tp2105
sbsbag1
(g2
g3
(lp2106
g5
aI8
aF0.4696605877970532
aI5
atp2107
Rp2108
(dp2109
g9
g1
(g10
g11
Ntp2110
Rp2111
(dp2112
g15
(F-3.749469
tp2113
sbsbag1
(g2
g3
(lp2114
g58
aI4
aF0.07120991268273691
aI6
atp2115
Rp2116
(dp2117
g9
g1
(g10
g11
Ntp2118
Rp2119
(dp2120
g15
(F-3.658714
tp2121
sbsbag1
(g2
g3
(lp2122
g5
aI4
aF0.1462348720985419
aI9
atp2123
Rp2124
(dp2125
g9
g1
(g10
g11
Ntp2126
Rp2127
(dp2128
g15
(F-3.669825
tp2129
sbsbag1
(g2
g3
(lp2130
g58
aI7
aF0.0716302725681639
aI2
atp2131
Rp2132
(dp2133
g9
g1
(g10
g11
Ntp2134
Rp2135
(dp2136
g15
(F-3.680926
tp2137
sbsbag1
(g2
g3
(lp2138
g58
aI3
aF0.40045324570183705
aI0
atp2139
Rp2140
(dp2141
g9
g1
(g10
g11
Ntp2142
Rp2143
(dp2144
g15
(F-3.672446
tp2145
sbsbag1
(g2
g3
(lp2146
g58
aI8
aF0.8195215187538529
aI6
atp2147
Rp2148
(dp2149
g9
g1
(g10
g11
Ntp2150
Rp2151
(dp2152
g15
(F-3.76375
tp2153
sbsbag1
(g2
g3
(lp2154
g58
aI7
aF0.8301502511642455
aI10
atp2155
Rp2156
(dp2157
g9
g1
(g10
g11
Ntp2158
Rp2159
(dp2160
g15
(F-3.724441
tp2161
sbsbag1
(g2
g3
(lp2162
g5
aI6
aF0.5079725622362338
aI1
atp2163
Rp2164
(dp2165
g9
g1
(g10
g11
Ntp2166
Rp2167
(dp2168
g15
(F-3.718034
tp2169
sbsbag1
(g2
g3
(lp2170
g58
aI10
aF0.5919567422350418
aI8
atp2171
Rp2172
(dp2173
g9
g1
(g10
g11
Ntp2174
Rp2175
(dp2176
g15
(F-3.761226
tp2177
sbsbag1
(g2
g3
(lp2178
g58
aI2
aF0.2702161129858317
aI4
atp2179
Rp2180
(dp2181
g9
g1
(g10
g11
Ntp2182
Rp2183
(dp2184
g15
(F-3.666887
tp2185
sbsbag1
(g2
g3
(lp2186
g5
aI10
aF0.5938843189426001
aI9
atp2187
Rp2188
(dp2189
g9
g1
(g10
g11
Ntp2190
Rp2191
(dp2192
g15
(F-3.854024
tp2193
sbsbag1
(g2
g3
(lp2194
g58
aI8
aF0.7011166241342092
aI1
atp2195
Rp2196
(dp2197
g9
g1
(g10
g11
Ntp2198
Rp2199
(dp2200
g15
(F-3.742983
tp2201
sbsbag1
(g2
g3
(lp2202
g58
aI7
aF0.027006183011841434
aI9
atp2203
Rp2204
(dp2205
g9
g1
(g10
g11
Ntp2206
Rp2207
(dp2208
g15
(F-3.675352
tp2209
sbsbag1
(g2
g3
(lp2210
g58
aI3
aF0.645319692228763
aI0
atp2211
Rp2212
(dp2213
g9
g1
(g10
g11
Ntp2214
Rp2215
(dp2216
g15
(F-3.669586
tp2217
sbsbag1
(g2
g3
(lp2218
g5
aI2
aF0.41462494850668297
aI0
atp2219
Rp2220
(dp2221
g9
g1
(g10
g11
Ntp2222
Rp2223
(dp2224
g15
(F-3.667897
tp2225
sbsbag1
(g2
g3
(lp2226
g58
aI10
aF0.8896164573293152
aI4
atp2227
Rp2228
(dp2229
g9
g1
(g10
g11
Ntp2230
Rp2231
(dp2232
g15
(F-3.790807
tp2233
sbsbag1
(g2
g3
(lp2234
g5
aI6
aF0.7165138622847551
aI8
atp2235
Rp2236
(dp2237
g9
g1
(g10
g11
Ntp2238
Rp2239
(dp2240
g15
(F-3.73889
tp2241
sbsbag1
(g2
g3
(lp2242
g58
aI8
aF0.49836901983321213
aI1
atp2243
Rp2244
(dp2245
g9
g1
(g10
g11
Ntp2246
Rp2247
(dp2248
g15
(F-3.72929
tp2249
sbsbag1
(g2
g3
(lp2250
g58
aI5
aF0.7320509350495996
aI7
atp2251
Rp2252
(dp2253
g9
g1
(g10
g11
Ntp2254
Rp2255
(dp2256
g15
(F-3.705011
tp2257
sbsbag1
(g2
g3
(lp2258
g58
aI4
aF0.1739889123243269
aI2
atp2259
Rp2260
(dp2261
g9
g1
(g10
g11
Ntp2262
Rp2263
(dp2264
g15
(F-3.658387
tp2265
sbsbag1
(g2
g3
(lp2266
g58
aI9
aF0.6494656593633256
aI4
atp2267
Rp2268
(dp2269
g9
g1
(g10
g11
Ntp2270
Rp2271
(dp2272
g15
(F-3.757013
tp2273
sbsbag1
(g2
g3
(lp2274
g58
aI3
aF0.9553235168278489
aI3
atp2275
Rp2276
(dp2277
g9
g1
(g10
g11
Ntp2278
Rp2279
(dp2280
g15
(F-3.685196
tp2281
sbsbag1
(g2
g3
(lp2282
g58
aI1
aF0.17086291752948124
aI6
atp2283
Rp2284
(dp2285
g9
g1
(g10
g11
Ntp2286
Rp2287
(dp2288
g15
(F-3.690554
tp2289
sbsbag1
(g2
g3
(lp2290
g5
aI10
aF0.6926120603784337
aI10
atp2291
Rp2292
(dp2293
g9
g1
(g10
g11
Ntp2294
Rp2295
(dp2296
g15
(F-3.869453
tp2297
sbsbag1
(g2
g3
(lp2298
g5
aI2
aF0.7490481320687238
aI1
atp2299
Rp2300
(dp2301
g9
g1
(g10
g11
Ntp2302
Rp2303
(dp2304
g15
(F-3.689223
tp2305
sbsbag1
(g2
g3
(lp2306
g5
aI5
aF0.15862586347549268
aI4
atp2307
Rp2308
(dp2309
g9
g1
(g10
g11
Ntp2310
Rp2311
(dp2312
g15
(F-3.682429
tp2313
sbsbag1
(g2
g3
(lp2314
g58
aI8
aF0.7888474204084402
aI2
atp2315
Rp2316
(dp2317
g9
g1
(g10
g11
Ntp2318
Rp2319
(dp2320
g15
(F-3.750122
tp2321
sbsbag1
(g2
g3
(lp2322
g5
aI8
aF0.7834013306195902
aI2
atp2323
Rp2324
(dp2325
g9
g1
(g10
g11
Ntp2326
Rp2327
(dp2328
g15
(F-3.843915
tp2329
sbsbag1
(g2
g3
(lp2330
g58
aI5
aF0.4023659526039044
aI3
atp2331
Rp2332
(dp2333
g9
g1
(g10
g11
Ntp2334
Rp2335
(dp2336
g15
(F-3.673474
tp2337
sbsbag1
(g2
g3
(lp2338
g58
aI1
aF0.331405309262489
aI9
atp2339
Rp2340
(dp2341
g9
g1
(g10
g11
Ntp2342
Rp2343
(dp2344
g15
(F-3.69323
tp2345
sbsbag1
(g2
g3
(lp2346
g58
aI10
aF0.5458298494832335
aI10
atp2347
Rp2348
(dp2349
g9
g1
(g10
g11
Ntp2350
Rp2351
(dp2352
g15
(F-3.742487
tp2353
sbsbag1
(g2
g3
(lp2354
g58
aI3
aF0.1675269902590304
aI9
atp2355
Rp2356
(dp2357
g9
g1
(g10
g11
Ntp2358
Rp2359
(dp2360
g15
(F-3.666111
tp2361
sbsbag1
(g2
g3
(lp2362
g58
aI10
aF0.09301975115882133
aI6
atp2363
Rp2364
(dp2365
g9
g1
(g10
g11
Ntp2366
Rp2367
(dp2368
g15
(F-3.698336
tp2369
sbsbag1
(g2
g3
(lp2370
g5
aI5
aF0.7953254269549439
aI6
atp2371
Rp2372
(dp2373
g9
g1
(g10
g11
Ntp2374
Rp2375
(dp2376
g15
(F-3.741434
tp2377
sbsbag1
(g2
g3
(lp2378
g58
aI5
aF0.6408291805198355
aI2
atp2379
Rp2380
(dp2381
g9
g1
(g10
g11
Ntp2382
Rp2383
(dp2384
g15
(F-3.701252
tp2385
sbsbag1
(g2
g3
(lp2386
g58
aI1
aF0.6682443988460122
aI7
atp2387
Rp2388
(dp2389
g9
g1
(g10
g11
Ntp2390
Rp2391
(dp2392
g15
(F-3.691972
tp2393
sbsbag1
(g2
g3
(lp2394
g58
aI5
aF0.3760173683748447
aI3
atp2395
Rp2396
(dp2397
g9
g1
(g10
g11
Ntp2398
Rp2399
(dp2400
g15
(F-3.679093
tp2401
sbsbag1
(g2
g3
(lp2402
g5
aI4
aF0.9783559244103635
aI8
atp2403
Rp2404
(dp2405
g9
g1
(g10
g11
Ntp2406
Rp2407
(dp2408
g15
(F-3.741497
tp2409
sbsba.